target datalayout = "e-m:e-p270:32:32-p271:32:32-p272:64:64-i64:64-i128:128-f80:128-n8:16:32:64-S128"
target triple = "x86_64-pc-linux-gnu"

; Function Attrs: mustprogress uwtable
define i32 @ucnv_extSimpleMatchToU_77(ptr noundef %0, ptr noundef %1, i32 noundef %2, i8 noundef signext %3) #0 {
  %5 = alloca i32, align 4
  %6 = alloca ptr, align 8
  %7 = alloca ptr, align 8
  %8 = alloca i32, align 4
  %9 = alloca i8, align 1
  %10 = alloca i32, align 4
  %11 = alloca i32, align 4
  %12 = alloca i32, align 4
  store ptr %0, ptr %6, align 8, !tbaa !8
  store ptr %1, ptr %7, align 8, !tbaa !15
  store i32 %2, ptr %8, align 4, !tbaa !10
  store i8 %3, ptr %9, align 1, !tbaa !23
  call void @llvm.lifetime.start.p0(i64 4, ptr %10) #7
  store i32 0, ptr %10, align 4, !tbaa !10
  call void @llvm.lifetime.start.p0(i64 4, ptr %11) #7
  %13 = load i32, ptr %8, align 4, !tbaa !10
  %14 = icmp sle i32 %13, 0
  br i1 %14, label %15, label %16

15:                                               ; preds = %4
  store i32 65535, ptr %5, align 4
  store i32 1, ptr %12, align 4
  br label %33

16:                                               ; preds = %4
  %17 = load ptr, ptr %6, align 8, !tbaa !8
  %18 = load ptr, ptr %7, align 8, !tbaa !15
  %19 = load i32, ptr %8, align 4, !tbaa !10
  %20 = load i8, ptr %9, align 1, !tbaa !23
  %21 = call noundef i32 @_ZL16ucnv_extMatchToUPKiaPKciS2_iPjaa(ptr noundef %17, i8 noundef signext -1, ptr noundef %18, i32 noundef %19, ptr noundef null, i32 noundef 0, ptr noundef %10, i8 noundef signext %20, i8 noundef signext 1)
  store i32 %21, ptr %11, align 4, !tbaa !10
  %22 = load i32, ptr %11, align 4, !tbaa !10
  %23 = load i32, ptr %8, align 4, !tbaa !10
  %24 = icmp eq i32 %22, %23
  br i1 %24, label %25, label %32

25:                                               ; preds = %16
  %26 = load i32, ptr %10, align 4, !tbaa !10
  %27 = icmp ule i32 %26, 3145727
  br i1 %27, label %28, label %31

28:                                               ; preds = %25
  %29 = load i32, ptr %10, align 4, !tbaa !10
  %30 = sub i32 %29, 2031616
  store i32 %30, ptr %5, align 4
  store i32 1, ptr %12, align 4
  br label %33

31:                                               ; preds = %25
  br label %32

32:                                               ; preds = %31, %16
  store i32 65534, ptr %5, align 4
  store i32 1, ptr %12, align 4
  br label %33

33:                                               ; preds = %32, %28, %15
  call void @llvm.lifetime.end.p0(i64 4, ptr %11) #7
  call void @llvm.lifetime.end.p0(i64 4, ptr %10) #7
  %34 = load i32, ptr %5, align 4
  ret i32 %34
}