; Function Attrs: mustprogress nofree norecurse nosync nounwind memory(readwrite, inaccessiblemem: none) uwtable
define range(i32 -2031616, 1114112) i32 @ucnv_extSimpleMatchToU_77(ptr noundef %0, ptr noundef readonly captures(none) %1, i32 noundef %2, i8 noundef signext %3) local_unnamed_addr #3 {
  %5 = alloca i32, align 4
  call void @llvm.lifetime.start.p0(i64 4, ptr nonnull %5) #7
  store i32 0, ptr %5, align 4, !tbaa !3
  %6 = icmp slt i32 %2, 1
  br i1 %6, label %13, label %7

7:                                                ; preds = %4
  %8 = call fastcc noundef i32 @_ZL16ucnv_extMatchToUPKiaPKciS2_iPjaa(ptr noundef %0, i8 noundef signext -1, ptr noundef %1, i32 noundef %2, ptr noundef null, i32 noundef 0, ptr noundef %5, i8 noundef signext 1)
  %9 = icmp eq i32 %8, %2
  %10 = load i32, ptr %5, align 4
  %11 = icmp ult i32 %10, 3145728
  %or.cond = select i1 %9, i1 %11, i1 false
  %12 = add nsw i32 %10, -2031616
  %spec.select = select i1 %or.cond, i32 %12, i32 65534
  br label %13

13:                                               ; preds = %7, %4
  %.0 = phi i32 [ 65535, %4 ], [ %spec.select, %7 ]
  call void @llvm.lifetime.end.p0(i64 4, ptr nonnull %5) #7
  ret i32 %.0
}